target datalayout = "e-m:e-p270:32:32-p271:32:32-p272:64:64-i64:64-i128:128-f80:128-n8:16:32:64-S128"
target triple = "x86_64-pc-linux-gnu"

@.str.36 = private unnamed_addr constant [16 x i8] c"\0APacket types:\0A\00", align 1
@.str.37 = private unnamed_addr constant [10 x i8] c"\09%-16s%s\0A\00", align 1
@.str.38 = private unnamed_addr constant [2 x i8] c"\0A\00", align 1

; Function Attrs: null_pointer_is_valid sspstrong uwtable
define internal void @help(ptr noundef %0) #0 {
  %2 = alloca ptr, align 8
  %3 = alloca i32, align 4
  %4 = alloca ptr, align 8
  %5 = alloca ptr, align 8
  store ptr %0, ptr %2, align 8
  call void @llvm.lifetime.start.p0(i64 4, ptr %3) #6
  store i32 0, ptr %3, align 4
  call void @llvm.lifetime.start.p0(i64 8, ptr %4) #6
  call void @llvm.lifetime.start.p0(i64 8, ptr %5) #6
  %6 = load ptr, ptr %2, align 8
  call void @extcap_help_print(ptr noundef %6)
  %7 = call i32 (i32, ptr, ...) @__printf_chk(i32 noundef 2, ptr noundef @.str.36)
  call void @randpkt_example_list(ptr noundef %4, ptr noundef %5)
  br label %8

8:                                                ; preds = %24, %1
  %9 = load ptr, ptr %4, align 8
  %10 = load i32, ptr %3, align 4
  %11 = zext i32 %10 to i64
  %12 = getelementptr ptr, ptr %9, i64 %11
  %13 = load ptr, ptr %12, align 8
  %14 = icmp ne ptr %13, null
  br i1 %14, label %15, label %22

15:                                               ; preds = %8
  %16 = load ptr, ptr %5, align 8
  %17 = load i32, ptr %3, align 4
  %18 = zext i32 %17 to i64
  %19 = getelementptr ptr, ptr %16, i64 %18
  %20 = load ptr, ptr %19, align 8
  %21 = icmp ne ptr %20, null
  br label %22

22:                                               ; preds = %15, %8
  %23 = phi i1 [ false, %8 ], [ %21, %15 ]
  br i1 %23, label %24, label %38

24:                                               ; preds = %22
  %25 = load ptr, ptr %4, align 8
  %26 = load i32, ptr %3, align 4
  %27 = zext i32 %26 to i64
  %28 = getelementptr ptr, ptr %25, i64 %27
  %29 = load ptr, ptr %28, align 8
  %30 = load ptr, ptr %5, align 8
  %31 = load i32, ptr %3, align 4
  %32 = zext i32 %31 to i64
  %33 = getelementptr ptr, ptr %30, i64 %32
  %34 = load ptr, ptr %33, align 8
  %35 = call i32 (i32, ptr, ...) @__printf_chk(i32 noundef 2, ptr noundef @.str.37, ptr noundef %29, ptr noundef %34)
  %36 = load i32, ptr %3, align 4
  %37 = add i32 %36, 1
  store i32 %37, ptr %3, align 4
  br label %8, !llvm.loop !12

38:                                               ; preds = %22
  %39 = call i32 (i32, ptr, ...) @__printf_chk(i32 noundef 2, ptr noundef @.str.38)
  %40 = load ptr, ptr %4, align 8
  call void @g_strfreev(ptr noundef %40)
  %41 = load ptr, ptr %5, align 8
  call void @g_strfreev(ptr noundef %41)
  call void @llvm.lifetime.end.p0(i64 8, ptr %5) #6
  call void @llvm.lifetime.end.p0(i64 8, ptr %4) #6
  call void @llvm.lifetime.end.p0(i64 4, ptr %3) #6
  ret void
}