; Function Attrs: null_pointer_is_valid sspstrong uwtable
define internal fastcc void @help(ptr noundef %0) unnamed_addr #0 {
  %2 = alloca ptr, align 8
  %3 = alloca ptr, align 8
  call void @llvm.lifetime.start.p0(i64 8, ptr nonnull %2) #4
  call void @llvm.lifetime.start.p0(i64 8, ptr nonnull %3) #4
  tail call void @extcap_help_print(ptr noundef %0)
  %4 = tail call i32 (i32, ptr, ...) @__printf_chk(i32 noundef 2, ptr noundef nonnull @.str.36)
  call void @randpkt_example_list(ptr noundef nonnull %2, ptr noundef nonnull %3)
  %5 = load ptr, ptr %2, align 8
  %6 = load ptr, ptr %5, align 8
  %.not8 = icmp eq ptr %6, null
  br i1 %.not8, label %.critedge, label %.lr.ph

.lr.ph:                                           ; preds = %1, %12
  %7 = phi ptr [ %18, %12 ], [ %6, %1 ]
  %8 = phi i64 [ %16, %12 ], [ 0, %1 ]
  %.09 = phi i32 [ %14, %12 ], [ 0, %1 ]
  %9 = load ptr, ptr %3, align 8
  %10 = getelementptr ptr, ptr %9, i64 %8
  %11 = load ptr, ptr %10, align 8
  %.not7 = icmp eq ptr %11, null
  br i1 %.not7, label %.critedge, label %12

12:                                               ; preds = %.lr.ph
  %13 = call i32 (i32, ptr, ...) @__printf_chk(i32 noundef 2, ptr noundef nonnull @.str.37, ptr noundef nonnull %7, ptr noundef nonnull %11)
  %14 = add i32 %.09, 1
  %15 = load ptr, ptr %2, align 8
  %16 = zext i32 %14 to i64
  %17 = getelementptr ptr, ptr %15, i64 %16
  %18 = load ptr, ptr %17, align 8
  %.not = icmp eq ptr %18, null
  br i1 %.not, label %.critedge, label %.lr.ph, !llvm.loop !10

.critedge:                                        ; preds = %.lr.ph, %12, %1
  %19 = call i32 (i32, ptr, ...) @__printf_chk(i32 noundef 2, ptr noundef nonnull @.str.38)
  %20 = load ptr, ptr %2, align 8
  call void @g_strfreev(ptr noundef %20)
  %21 = load ptr, ptr %3, align 8
  call void @g_strfreev(ptr noundef %21)
  call void @llvm.lifetime.end.p0(i64 8, ptr nonnull %3) #4
  call void @llvm.lifetime.end.p0(i64 8, ptr nonnull %2) #4
  ret void
}